; Function Attrs: mustprogress nofree norecurse nosync nounwind willreturn memory(argmem: readwrite) uwtable
define noundef zeroext i1 @_ZN32pxrInternal_v0_24__pxrReserved__19GfFindClosestPointsERKNS_8GfLine2dES2_PNS_7GfVec2dES4_PdS5_(ptr nocapture noundef nonnull readonly align 8 dereferenceable(32) %0, ptr nocapture noundef nonnull readonly align 8 dereferenceable(32) %1, ptr noundef writeonly %2, ptr noundef writeonly %3, ptr noundef writeonly %4, ptr noundef writeonly %5) local_unnamed_addr #1 {
  %7 = getelementptr inbounds nuw i8, ptr %0, i64 16
  %8 = getelementptr inbounds nuw i8, ptr %1, i64 16
  %9 = load double, ptr %7, align 8
  %10 = load double, ptr %8, align 8
  %11 = getelementptr inbounds i8, ptr %0, i64 24
  %12 = load double, ptr %11, align 8
  %13 = getelementptr inbounds i8, ptr %1, i64 24
  %14 = load double, ptr %13, align 8
  %15 = fmul double %12, %14
  %16 = tail call noundef double @llvm.fmuladd.f64(double %9, double %10, double %15)
  %17 = fmul double %12, %12
  %18 = tail call noundef double @llvm.fmuladd.f64(double %9, double %9, double %17)
  %19 = load double, ptr %0, align 8
  %20 = getelementptr inbounds i8, ptr %0, i64 8
  %21 = load double, ptr %20, align 8
  %22 = getelementptr inbounds i8, ptr %1, i64 8
  %23 = fmul double %14, %14
  %24 = tail call noundef double @llvm.fmuladd.f64(double %10, double %10, double %23)
  %25 = fneg double %24
  %26 = fmul double %18, %25
  %27 = tail call double @llvm.fmuladd.f64(double %16, double %16, double %26)
  %28 = tail call double @llvm.fabs.f64(double %27)
  %29 = fcmp uge double %28, 0x3EB0C6F7A0B5ED8D
  br i1 %29, label %30, label %65

30:                                               ; preds = %6
  %31 = load double, ptr %1, align 8
  %32 = load double, ptr %22, align 8
  %33 = fmul double %14, %32
  %34 = tail call noundef double @llvm.fmuladd.f64(double %10, double %31, double %33)
  %35 = fmul double %14, %21
  %36 = tail call noundef double @llvm.fmuladd.f64(double %10, double %19, double %35)
  %37 = fmul double %12, %32
  %38 = tail call noundef double @llvm.fmuladd.f64(double %9, double %31, double %37)
  %39 = fmul double %12, %21
  %40 = tail call noundef double @llvm.fmuladd.f64(double %9, double %19, double %39)
  %41 = fsub double %36, %34
  %42 = fsub double %40, %38
  %43 = fneg double %41
  %44 = fmul double %16, %43
  %45 = tail call double @llvm.fmuladd.f64(double %42, double %24, double %44)
  %46 = fdiv double %45, %27
  %47 = fmul double %18, %43
  %48 = tail call double @llvm.fmuladd.f64(double %42, double %16, double %47)
  %49 = fdiv double %48, %27
  %.not = icmp eq ptr %2, null
  br i1 %.not, label %55, label %50

50:                                               ; preds = %30
  %51 = fmul double %9, %46
  %52 = fmul double %46, %12
  %53 = fadd double %19, %51
  %54 = fadd double %21, %52
  store double %53, ptr %2, align 8
  %.sroa.22.0..sroa_idx = getelementptr inbounds i8, ptr %2, i64 8
  store double %54, ptr %.sroa.22.0..sroa_idx, align 8
  br label %55

55:                                               ; preds = %50, %30
  %.not55 = icmp eq ptr %3, null
  br i1 %.not55, label %61, label %56

56:                                               ; preds = %55
  %.sroa.0.0.copyload2.i.i58 = load double, ptr %8, align 8
  %.sroa.4.0.copyload.i.i60 = load double, ptr %13, align 8
  %57 = fmul double %49, %.sroa.0.0.copyload2.i.i58
  %58 = fmul double %49, %.sroa.4.0.copyload.i.i60
  %.sroa.0.0.copyload2.i2.i61 = load double, ptr %1, align 8
  %.sroa.4.0.copyload.i4.i63 = load double, ptr %22, align 8
  %59 = fadd double %57, %.sroa.0.0.copyload2.i2.i61
  %60 = fadd double %58, %.sroa.4.0.copyload.i4.i63
  store double %59, ptr %3, align 8
  %.sroa.2.0..sroa_idx = getelementptr inbounds i8, ptr %3, i64 8
  store double %60, ptr %.sroa.2.0..sroa_idx, align 8
  br label %61

61:                                               ; preds = %56, %55
  %.not56 = icmp eq ptr %4, null
  br i1 %.not56, label %63, label %62

62:                                               ; preds = %61
  store double %46, ptr %4, align 8
  br label %63

63:                                               ; preds = %62, %61
  %.not57 = icmp eq ptr %5, null
  br i1 %.not57, label %65, label %64

64:                                               ; preds = %63
  store double %49, ptr %5, align 8
  br label %65

65:                                               ; preds = %63, %64, %6
  ret i1 %29
}